target datalayout = "e-m:e-p270:32:32-p271:32:32-p272:64:64-i64:64-i128:128-f80:128-n8:16:32:64-S128"
target triple = "x86_64-pc-linux-gnu"

%struct.H5AC_cache_image_config_t = type { i32, i8, i8, i32 }
%struct.H5C_cache_image_ctl_t = type { i32, i8, i8, i32, i32 }

@H5AC_init_g = global i8 0, align 1
@H5_libterm_g = external global i8, align 1
@.str = private unnamed_addr constant [98 x i8] c"generated/home/dtcxzyw/WorkSpace/Projects/compilers/llvm-opt-benchmark/bench/hdf5/hdf5/src/H5AC.c\00", align 1
@H5E_FUNC_g = external global i64, align 8
@H5E_CANTINIT_g = external global i64, align 8
@.str.1 = private unnamed_addr constant [32 x i8] c"interface initialization failed\00", align 1
@H5E_CACHE_g = external global i64, align 8
@H5E_BADVALUE_g = external global i64, align 8
@.str.48 = private unnamed_addr constant [25 x i8] c"NULL config_ptr on entry\00", align 1
@__const.H5AC_validate_cache_image_config.internal_config = private unnamed_addr constant { i32, i8, i8, [2 x i8], i32, i32 } { i32 1, i8 0, i8 0, [2 x i8] zeroinitializer, i32 -1, i32 15 }, align 4
@__func__.H5AC_validate_cache_image_config = private unnamed_addr constant [33 x i8] c"H5AC_validate_cache_image_config\00", align 1
@.str.57 = private unnamed_addr constant [29 x i8] c"Unknown image config version\00", align 1
@.str.58 = private unnamed_addr constant [35 x i8] c"error(s) in new cache image config\00", align 1

; Function Attrs: nounwind uwtable
define i32 @H5AC__init_package() #0 {
  %1 = load i8, ptr @H5AC_init_g, align 1, !tbaa !7, !range !9, !noundef !10
  %2 = trunc i8 %1 to i1
  br i1 %2, label %7, label %3

3:                                                ; preds = %0
  %4 = load i8, ptr @H5_libterm_g, align 1, !tbaa !7, !range !9, !noundef !10
  %5 = trunc i8 %4 to i1
  %6 = xor i1 %5, true
  br label %7

7:                                                ; preds = %3, %0
  %8 = phi i1 [ true, %0 ], [ %6, %3 ]
  %9 = xor i1 %8, true
  %10 = xor i1 %9, true
  %11 = zext i1 %10 to i32
  %12 = sext i32 %11 to i64
  %13 = call i64 @llvm.expect.i64(i64 %12, i64 1)
  %14 = icmp ne i64 %13, 0
  br i1 %14, label %15, label %16

15:                                               ; preds = %7
  br label %16

16:                                               ; preds = %15, %7
  ret i32 0
}

; Function Attrs: nounwind uwtable
define i32 @H5AC_validate_cache_image_config(ptr noundef %0) #0 {
  %2 = alloca ptr, align 8
  %3 = alloca %struct.H5C_cache_image_ctl_t, align 4
  %4 = alloca i32, align 4
  %5 = alloca i8, align 1
  store ptr %0, ptr %2, align 8, !tbaa !45
  call void @llvm.lifetime.start.p0(i64 16, ptr %3) #6
  call void @llvm.memcpy.p0.p0.i64(ptr align 4 %3, ptr align 4 @__const.H5AC_validate_cache_image_config.internal_config, i64 16, i1 false)
  call void @llvm.lifetime.start.p0(i64 4, ptr %4) #6
  store i32 0, ptr %4, align 4, !tbaa !3
  call void @llvm.lifetime.start.p0(i64 1, ptr %5) #6
  store i8 0, ptr %5, align 1, !tbaa !7
  %6 = load i8, ptr @H5AC_init_g, align 1, !tbaa !7, !range !9, !noundef !10
  %7 = trunc i8 %6 to i1
  br i1 %7, label %12, label %8

8:                                                ; preds = %1
  %9 = load i8, ptr @H5_libterm_g, align 1, !tbaa !7, !range !9, !noundef !10
  %10 = trunc i8 %9 to i1
  %11 = xor i1 %10, true
  br label %12

12:                                               ; preds = %8, %1
  %13 = phi i1 [ false, %1 ], [ %11, %8 ]
  %14 = xor i1 %13, true
  %15 = xor i1 %14, true
  %16 = zext i1 %15 to i32
  %17 = sext i32 %16 to i64
  %18 = call i64 @llvm.expect.i64(i64 %17, i64 0)
  %19 = icmp ne i64 %18, 0
  br i1 %19, label %20, label %43

20:                                               ; preds = %12
  store i8 1, ptr @H5AC_init_g, align 1, !tbaa !7
  %21 = call i32 @H5AC__init_package()
  %22 = icmp slt i32 %21, 0
  br i1 %22, label %23, label %42

23:                                               ; preds = %20
  store i8 0, ptr @H5AC_init_g, align 1, !tbaa !7
  br label %24

24:                                               ; preds = %23
  br label %25

25:                                               ; preds = %24
  br label %26

26:                                               ; preds = %25
  %27 = load i64, ptr @H5E_FUNC_g, align 8, !tbaa !11
  %28 = load i64, ptr @H5E_CANTINIT_g, align 8, !tbaa !11
  %29 = call i32 (ptr, ptr, i32, i64, i64, ptr, ...) @H5E_printf_stack(ptr noundef @.str, ptr noundef @__func__.H5AC_validate_cache_image_config, i32 noundef 1960, i64 noundef %27, i64 noundef %28, ptr noundef @.str.1)
  br label %30

30:                                               ; preds = %26
  br label %31

31:                                               ; preds = %30
  store i8 1, ptr %5, align 1, !tbaa !7
  %32 = load i8, ptr %5, align 1, !tbaa !7, !range !9, !noundef !10
  %33 = trunc i8 %32 to i1
  %34 = zext i1 %33 to i8
  store i8 %34, ptr %5, align 1, !tbaa !7
  br label %35

35:                                               ; preds = %31
  br label %36

36:                                               ; preds = %35
  br label %37

37:                                               ; preds = %36
  store i32 -1, ptr %4, align 4, !tbaa !3
  br label %147

38:                                               ; No predecessors!
  br label %39

39:                                               ; preds = %38
  br label %40

40:                                               ; preds = %39
  br label %41

41:                                               ; preds = %40
  br label %42

42:                                               ; preds = %41, %20
  br label %43

43:                                               ; preds = %42, %12
  %44 = load i8, ptr @H5AC_init_g, align 1, !tbaa !7, !range !9, !noundef !10
  %45 = trunc i8 %44 to i1
  br i1 %45, label %50, label %46

46:                                               ; preds = %43
  %47 = load i8, ptr @H5_libterm_g, align 1, !tbaa !7, !range !9, !noundef !10
  %48 = trunc i8 %47 to i1
  %49 = xor i1 %48, true
  br label %50

50:                                               ; preds = %46, %43
  %51 = phi i1 [ true, %43 ], [ %49, %46 ]
  %52 = xor i1 %51, true
  %53 = xor i1 %52, true
  %54 = zext i1 %53 to i32
  %55 = sext i32 %54 to i64
  %56 = call i64 @llvm.expect.i64(i64 %55, i64 1)
  %57 = icmp ne i64 %56, 0
  br i1 %57, label %58, label %148

58:                                               ; preds = %50
  %59 = load ptr, ptr %2, align 8, !tbaa !45
  %60 = icmp eq ptr %59, null
  br i1 %60, label %61, label %80

61:                                               ; preds = %58
  br label %62

62:                                               ; preds = %61
  br label %63

63:                                               ; preds = %62
  br label %64

64:                                               ; preds = %63
  %65 = load i64, ptr @H5E_CACHE_g, align 8, !tbaa !11
  %66 = load i64, ptr @H5E_BADVALUE_g, align 8, !tbaa !11
  %67 = call i32 (ptr, ptr, i32, i64, i64, ptr, ...) @H5E_printf_stack(ptr noundef @.str, ptr noundef @__func__.H5AC_validate_cache_image_config, i32 noundef 1964, i64 noundef %65, i64 noundef %66, ptr noundef @.str.48)
  br label %68

68:                                               ; preds = %64
  br label %69

69:                                               ; preds = %68
  store i8 1, ptr %5, align 1, !tbaa !7
  %70 = load i8, ptr %5, align 1, !tbaa !7, !range !9, !noundef !10
  %71 = trunc i8 %70 to i1
  %72 = zext i1 %71 to i8
  store i8 %72, ptr %5, align 1, !tbaa !7
  br label %73

73:                                               ; preds = %69
  br label %74

74:                                               ; preds = %73
  br label %75

75:                                               ; preds = %74
  store i32 -1, ptr %4, align 4, !tbaa !3
  br label %147

76:                                               ; No predecessors!
  br label %77

77:                                               ; preds = %76
  br label %78

78:                                               ; preds = %77
  br label %79

79:                                               ; preds = %78
  br label %80

80:                                               ; preds = %79, %58
  %81 = load ptr, ptr %2, align 8, !tbaa !45
  %82 = getelementptr inbounds nuw %struct.H5AC_cache_image_config_t, ptr %81, i32 0, i32 0
  %83 = load i32, ptr %82, align 4, !tbaa !47
  %84 = icmp ne i32 %83, 1
  br i1 %84, label %85, label %104

85:                                               ; preds = %80
  br label %86

86:                                               ; preds = %85
  br label %87

87:                                               ; preds = %86
  br label %88

88:                                               ; preds = %87
  %89 = load i64, ptr @H5E_CACHE_g, align 8, !tbaa !11
  %90 = load i64, ptr @H5E_BADVALUE_g, align 8, !tbaa !11
  %91 = call i32 (ptr, ptr, i32, i64, i64, ptr, ...) @H5E_printf_stack(ptr noundef @.str, ptr noundef @__func__.H5AC_validate_cache_image_config, i32 noundef 1967, i64 noundef %89, i64 noundef %90, ptr noundef @.str.57)
  br label %92

92:                                               ; preds = %88
  br label %93

93:                                               ; preds = %92
  store i8 1, ptr %5, align 1, !tbaa !7
  %94 = load i8, ptr %5, align 1, !tbaa !7, !range !9, !noundef !10
  %95 = trunc i8 %94 to i1
  %96 = zext i1 %95 to i8
  store i8 %96, ptr %5, align 1, !tbaa !7
  br label %97

97:                                               ; preds = %93
  br label %98

98:                                               ; preds = %97
  br label %99

99:                                               ; preds = %98
  store i32 -1, ptr %4, align 4, !tbaa !3
  br label %147

100:                                              ; No predecessors!
  br label %101

101:                                              ; preds = %100
  br label %102

102:                                              ; preds = %101
  br label %103

103:                                              ; preds = %102
  br label %104

104:                                              ; preds = %103, %80
  %105 = load ptr, ptr %2, align 8, !tbaa !45
  %106 = getelementptr inbounds nuw %struct.H5AC_cache_image_config_t, ptr %105, i32 0, i32 0
  %107 = load i32, ptr %106, align 4, !tbaa !47
  %108 = getelementptr inbounds nuw %struct.H5C_cache_image_ctl_t, ptr %3, i32 0, i32 0
  store i32 %107, ptr %108, align 4, !tbaa !48
  %109 = load ptr, ptr %2, align 8, !tbaa !45
  %110 = getelementptr inbounds nuw %struct.H5AC_cache_image_config_t, ptr %109, i32 0, i32 1
  %111 = load i8, ptr %110, align 4, !tbaa !50, !range !9, !noundef !10
  %112 = trunc i8 %111 to i1
  %113 = getelementptr inbounds nuw %struct.H5C_cache_image_ctl_t, ptr %3, i32 0, i32 1
  %114 = zext i1 %112 to i8
  store i8 %114, ptr %113, align 4, !tbaa !51
  %115 = load ptr, ptr %2, align 8, !tbaa !45
  %116 = getelementptr inbounds nuw %struct.H5AC_cache_image_config_t, ptr %115, i32 0, i32 2
  %117 = load i8, ptr %116, align 1, !tbaa !52, !range !9, !noundef !10
  %118 = trunc i8 %117 to i1
  %119 = getelementptr inbounds nuw %struct.H5C_cache_image_ctl_t, ptr %3, i32 0, i32 2
  %120 = zext i1 %118 to i8
  store i8 %120, ptr %119, align 1, !tbaa !53
  %121 = load ptr, ptr %2, align 8, !tbaa !45
  %122 = getelementptr inbounds nuw %struct.H5AC_cache_image_config_t, ptr %121, i32 0, i32 3
  %123 = load i32, ptr %122, align 4, !tbaa !54
  %124 = getelementptr inbounds nuw %struct.H5C_cache_image_ctl_t, ptr %3, i32 0, i32 3
  store i32 %123, ptr %124, align 4, !tbaa !55
  %125 = call i32 @H5C_validate_cache_image_config(ptr noundef %3)
  %126 = icmp slt i32 %125, 0
  br i1 %126, label %127, label %146

127:                                              ; preds = %104
  br label %128

128:                                              ; preds = %127
  br label %129

129:                                              ; preds = %128
  br label %130

130:                                              ; preds = %129
  %131 = load i64, ptr @H5E_CACHE_g, align 8, !tbaa !11
  %132 = load i64, ptr @H5E_BADVALUE_g, align 8, !tbaa !11
  %133 = call i32 (ptr, ptr, i32, i64, i64, ptr, ...) @H5E_printf_stack(ptr noundef @.str, ptr noundef @__func__.H5AC_validate_cache_image_config, i32 noundef 1979, i64 noundef %131, i64 noundef %132, ptr noundef @.str.58)
  br label %134

134:                                              ; preds = %130
  br label %135

135:                                              ; preds = %134
  store i8 1, ptr %5, align 1, !tbaa !7
  %136 = load i8, ptr %5, align 1, !tbaa !7, !range !9, !noundef !10
  %137 = trunc i8 %136 to i1
  %138 = zext i1 %137 to i8
  store i8 %138, ptr %5, align 1, !tbaa !7
  br label %139

139:                                              ; preds = %135
  br label %140

140:                                              ; preds = %139
  br label %141

141:                                              ; preds = %140
  store i32 -1, ptr %4, align 4, !tbaa !3
  br label %147

142:                                              ; No predecessors!
  br label %143

143:                                              ; preds = %142
  br label %144

144:                                              ; preds = %143
  br label %145

145:                                              ; preds = %144
  br label %146

146:                                              ; preds = %145, %104
  br label %147

147:                                              ; preds = %146, %141, %99, %75, %37
  br label %148

148:                                              ; preds = %147, %50
  %149 = load i32, ptr %4, align 4, !tbaa !3
  call void @llvm.lifetime.end.p0(i64 1, ptr %5) #6
  call void @llvm.lifetime.end.p0(i64 4, ptr %4) #6
  call void @llvm.lifetime.end.p0(i64 16, ptr %3) #6
  ret i32 %149
}