; Function Attrs: nounwind uwtable
define range(i32 -1, 1) i32 @H5AC_validate_cache_image_config(ptr noundef readonly captures(address_is_null) %0) local_unnamed_addr #4 {
  %2 = alloca %struct.H5C_cache_image_ctl_t, align 4
  call void @llvm.lifetime.start.p0(i64 16, ptr nonnull %2) #8
  call void @llvm.memcpy.p0.p0.i64(ptr noundef nonnull align 4 dereferenceable(16) %2, ptr noundef nonnull align 4 dereferenceable(16) @__const.H5AC_validate_cache_image_config.internal_config, i64 16, i1 false)
  %3 = load i8, ptr @H5AC_init_g, align 1, !tbaa !3, !range !7, !noundef !8
  %4 = trunc nuw i8 %3 to i1
  %5 = load i8, ptr @H5_libterm_g, align 1, !range !7
  %6 = trunc nuw i8 %5 to i1
  %7 = select i1 %4, i1 true, i1 %6
  br i1 %7, label %8, label %.thread, !prof !9

.thread:                                          ; preds = %1
  store i8 1, ptr @H5AC_init_g, align 1, !tbaa !3
  br label %11

8:                                                ; preds = %1
  %9 = xor i1 %6, true
  %10 = select i1 %4, i1 true, i1 %9
  br i1 %10, label %11, label %39, !prof !41

11:                                               ; preds = %.thread, %8
  %12 = icmp eq ptr %0, null
  br i1 %12, label %13, label %17

13:                                               ; preds = %11
  %14 = load i64, ptr @H5E_CACHE_g, align 8, !tbaa !42
  %15 = load i64, ptr @H5E_BADVALUE_g, align 8, !tbaa !42
  %16 = tail call i32 (ptr, ptr, i32, i64, i64, ptr, ...) @H5E_printf_stack(ptr noundef nonnull @.str, ptr noundef nonnull @__func__.H5AC_validate_cache_image_config, i32 noundef 1964, i64 noundef %14, i64 noundef %15, ptr noundef nonnull @.str.48) #8
  br label %39

17:                                               ; preds = %11
  %18 = load i32, ptr %0, align 4, !tbaa !43
  %.not = icmp eq i32 %18, 1
  br i1 %.not, label %23, label %19

19:                                               ; preds = %17
  %20 = load i64, ptr @H5E_CACHE_g, align 8, !tbaa !42
  %21 = load i64, ptr @H5E_BADVALUE_g, align 8, !tbaa !42
  %22 = tail call i32 (ptr, ptr, i32, i64, i64, ptr, ...) @H5E_printf_stack(ptr noundef nonnull @.str, ptr noundef nonnull @__func__.H5AC_validate_cache_image_config, i32 noundef 1967, i64 noundef %20, i64 noundef %21, ptr noundef nonnull @.str.57) #8
  br label %39

23:                                               ; preds = %17
  store i32 1, ptr %2, align 4, !tbaa !44
  %24 = getelementptr inbounds nuw i8, ptr %0, i64 4
  %25 = load i8, ptr %24, align 4, !tbaa !46, !range !7, !noundef !8
  %26 = getelementptr inbounds nuw i8, ptr %2, i64 4
  store i8 %25, ptr %26, align 4, !tbaa !47
  %27 = getelementptr inbounds nuw i8, ptr %0, i64 5
  %28 = load i8, ptr %27, align 1, !tbaa !48, !range !7, !noundef !8
  %29 = getelementptr inbounds nuw i8, ptr %2, i64 5
  store i8 %28, ptr %29, align 1, !tbaa !49
  %30 = getelementptr inbounds nuw i8, ptr %0, i64 8
  %31 = load i32, ptr %30, align 4, !tbaa !50
  %32 = getelementptr inbounds nuw i8, ptr %2, i64 8
  store i32 %31, ptr %32, align 4, !tbaa !51
  %33 = call i32 @H5C_validate_cache_image_config(ptr noundef nonnull %2) #8
  %34 = icmp slt i32 %33, 0
  br i1 %34, label %35, label %39

35:                                               ; preds = %23
  %36 = load i64, ptr @H5E_CACHE_g, align 8, !tbaa !42
  %37 = load i64, ptr @H5E_BADVALUE_g, align 8, !tbaa !42
  %38 = call i32 (ptr, ptr, i32, i64, i64, ptr, ...) @H5E_printf_stack(ptr noundef nonnull @.str, ptr noundef nonnull @__func__.H5AC_validate_cache_image_config, i32 noundef 1979, i64 noundef %36, i64 noundef %37, ptr noundef nonnull @.str.58) #8
  br label %39

39:                                               ; preds = %13, %19, %35, %23, %8
  %.0 = phi i32 [ -1, %13 ], [ -1, %19 ], [ -1, %35 ], [ 0, %23 ], [ 0, %8 ]
  call void @llvm.lifetime.end.p0(i64 16, ptr nonnull %2) #8
  ret i32 %.0
}